; Function Attrs: mustprogress ssp uwtable
define noundef zeroext i1 @_ZN6open3d7utility16IJsonConvertible24EigenVector3dToJsonArrayERKN5Eigen6MatrixIdLi3ELi1ELi0ELi3ELi1EEERN4Json5ValueE(ptr noundef nonnull readonly align 8 captures(none) dereferenceable(24) %0, ptr noundef nonnull align 8 dereferenceable(40) %1) local_unnamed_addr #1 align 2 personality ptr @__gxx_personality_v0 {
  %3 = alloca %"class.Json::Value", align 8
  %4 = alloca %"class.Json::Value", align 8
  %5 = alloca %"class.Json::Value", align 8
  tail call void @_ZN4Json5Value5clearEv(ptr noundef nonnull align 8 dereferenceable(40) %1)
  call void @llvm.lifetime.start.p0(i64 40, ptr nonnull %3) #29
  %6 = load double, ptr %0, align 8, !tbaa !600
  call void @_ZN4Json5ValueC1Ed(ptr noundef nonnull align 8 dereferenceable(40) %3, double noundef %6)
  %7 = invoke noundef nonnull align 8 dereferenceable(40) ptr @_ZN4Json5Value6appendEOS0_(ptr noundef nonnull align 8 dereferenceable(40) %1, ptr noundef nonnull align 8 dereferenceable(40) %3)
          to label %8 unwind label %17

8:                                                ; preds = %2
  call void @_ZN4Json5ValueD1Ev(ptr noundef nonnull align 8 dereferenceable(40) %3) #29
  call void @llvm.lifetime.end.p0(i64 40, ptr nonnull %3) #29
  call void @llvm.lifetime.start.p0(i64 40, ptr nonnull %4) #29
  %9 = getelementptr inbounds nuw i8, ptr %0, i64 8
  %10 = load double, ptr %9, align 8, !tbaa !600
  call void @_ZN4Json5ValueC1Ed(ptr noundef nonnull align 8 dereferenceable(40) %4, double noundef %10)
  %11 = invoke noundef nonnull align 8 dereferenceable(40) ptr @_ZN4Json5Value6appendEOS0_(ptr noundef nonnull align 8 dereferenceable(40) %1, ptr noundef nonnull align 8 dereferenceable(40) %4)
          to label %12 unwind label %19

12:                                               ; preds = %8
  call void @_ZN4Json5ValueD1Ev(ptr noundef nonnull align 8 dereferenceable(40) %4) #29
  call void @llvm.lifetime.end.p0(i64 40, ptr nonnull %4) #29
  call void @llvm.lifetime.start.p0(i64 40, ptr nonnull %5) #29
  %13 = getelementptr inbounds nuw i8, ptr %0, i64 16
  %14 = load double, ptr %13, align 8, !tbaa !600
  call void @_ZN4Json5ValueC1Ed(ptr noundef nonnull align 8 dereferenceable(40) %5, double noundef %14)
  %15 = invoke noundef nonnull align 8 dereferenceable(40) ptr @_ZN4Json5Value6appendEOS0_(ptr noundef nonnull align 8 dereferenceable(40) %1, ptr noundef nonnull align 8 dereferenceable(40) %5)
          to label %16 unwind label %21

16:                                               ; preds = %12
  call void @_ZN4Json5ValueD1Ev(ptr noundef nonnull align 8 dereferenceable(40) %5) #29
  call void @llvm.lifetime.end.p0(i64 40, ptr nonnull %5) #29
  ret i1 true

17:                                               ; preds = %2
  %18 = landingpad { ptr, i32 }
          cleanup
  call void @_ZN4Json5ValueD1Ev(ptr noundef nonnull align 8 dereferenceable(40) %3) #29
  call void @llvm.lifetime.end.p0(i64 40, ptr nonnull %3) #29
  br label %23

19:                                               ; preds = %8
  %20 = landingpad { ptr, i32 }
          cleanup
  call void @_ZN4Json5ValueD1Ev(ptr noundef nonnull align 8 dereferenceable(40) %4) #29
  call void @llvm.lifetime.end.p0(i64 40, ptr nonnull %4) #29
  br label %23

21:                                               ; preds = %12
  %22 = landingpad { ptr, i32 }
          cleanup
  call void @_ZN4Json5ValueD1Ev(ptr noundef nonnull align 8 dereferenceable(40) %5) #29
  call void @llvm.lifetime.end.p0(i64 40, ptr nonnull %5) #29
  br label %23

23:                                               ; preds = %21, %19, %17
  %.pn = phi { ptr, i32 } [ %22, %21 ], [ %20, %19 ], [ %18, %17 ]
  resume { ptr, i32 } %.pn
}